target datalayout = "e-m:e-p270:32:32-p271:32:32-p272:64:64-i64:64-i128:128-f80:128-n8:16:32:64-S128"
target triple = "x86_64-pc-linux-gnu"

%"class.std::__cxx11::basic_string" = type { %"struct.std::__cxx11::basic_string<char>::_Alloc_hider", i64, %union.anon }
%"struct.std::__cxx11::basic_string<char>::_Alloc_hider" = type { ptr }
%union.anon = type { i64, [8 x i8] }

@.str.109 = private unnamed_addr constant [2 x i8] c"\0A\00", align 1
@.str.136 = private unnamed_addr constant [30 x i8] c"%4d %14.6e %9.2e %9.2e %9.2e \00", align 1
@.str.137 = private unnamed_addr constant [7 x i8] c"%7.2f \00", align 1
@.str.138 = private unnamed_addr constant [5 x i8] c"%7s \00", align 1
@.str.139 = private unnamed_addr constant [2 x i8] c"-\00", align 1
@.str.140 = private unnamed_addr constant [4 x i8] c"%2d\00", align 1
@.str.141 = private unnamed_addr constant [2 x i8] c"F\00", align 1
@.str.142 = private unnamed_addr constant [2 x i8] c" \00", align 1
@.str.143 = private unnamed_addr constant [7 x i8] c" - SOC\00", align 1
@.str.144 = private unnamed_addr constant [4 x i8] c" - \00", align 1

; Function Attrs: mustprogress nounwind uwtable
define available_externally noundef ptr @_ZNKSt7__cxx1112basic_stringIcSt11char_traitsIcESaIcEE7_M_dataEv(ptr noundef nonnull align 8 dereferenceable(32) %0) #5 align 2 {
  %2 = alloca ptr, align 8
  store ptr %0, ptr %2, align 8, !tbaa !13
  %3 = load ptr, ptr %2, align 8
  %4 = getelementptr inbounds nuw %"class.std::__cxx11::basic_string", ptr %3, i32 0, i32 0
  %5 = getelementptr inbounds nuw %"struct.std::__cxx11::basic_string<char>::_Alloc_hider", ptr %4, i32 0, i32 0
  %6 = load ptr, ptr %5, align 8, !tbaa !505
  ret ptr %6
}

; Function Attrs: mustprogress nounwind uwtable
define available_externally noundef ptr @_ZNKSt7__cxx1112basic_stringIcSt11char_traitsIcESaIcEE5c_strEv(ptr noundef nonnull align 8 dereferenceable(32) %0) #5 align 2 {
  %2 = alloca ptr, align 8
  store ptr %0, ptr %2, align 8, !tbaa !13
  %3 = load ptr, ptr %2, align 8
  %4 = call noundef ptr @_ZNKSt7__cxx1112basic_stringIcSt11char_traitsIcESaIcEE7_M_dataEv(ptr noundef nonnull align 8 dereferenceable(32) %3)
  ret ptr %4
}

; Function Attrs: mustprogress uwtable
define void @_ZNK6casadi9Sqpmethod15print_iterationExdddddxbbNSt7__cxx1112basic_stringIcSt11char_traitsIcESaIcEEE(ptr noundef nonnull align 8 dereferenceable(2386) %0, i64 noundef %1, double noundef %2, double noundef %3, double noundef %4, double noundef %5, double noundef %6, i64 noundef %7, i1 noundef zeroext %8, i1 noundef zeroext %9, ptr noundef %10) #6 align 2 {
  %12 = alloca ptr, align 8
  %13 = alloca i64, align 8
  %14 = alloca double, align 8
  %15 = alloca double, align 8
  %16 = alloca double, align 8
  %17 = alloca double, align 8
  %18 = alloca double, align 8
  %19 = alloca i64, align 8
  %20 = alloca i8, align 1
  %21 = alloca i8, align 1
  %22 = alloca ptr, align 8
  store ptr %0, ptr %12, align 8, !tbaa !46
  store i64 %1, ptr %13, align 8, !tbaa !193
  store double %2, ptr %14, align 8, !tbaa !192
  store double %3, ptr %15, align 8, !tbaa !192
  store double %4, ptr %16, align 8, !tbaa !192
  store double %5, ptr %17, align 8, !tbaa !192
  store double %6, ptr %18, align 8, !tbaa !192
  store i64 %7, ptr %19, align 8, !tbaa !193
  %23 = zext i1 %8 to i8
  store i8 %23, ptr %20, align 1, !tbaa !42
  %24 = zext i1 %9 to i8
  store i8 %24, ptr %21, align 1, !tbaa !42
  store ptr %10, ptr %22, align 8, !tbaa !13
  %25 = load ptr, ptr %12, align 8
  %26 = load i64, ptr %13, align 8, !tbaa !193
  %27 = load double, ptr %14, align 8, !tbaa !192
  %28 = load double, ptr %15, align 8, !tbaa !192
  %29 = load double, ptr %16, align 8, !tbaa !192
  %30 = load double, ptr %17, align 8, !tbaa !192
  call void (ptr, ptr, ...) @_ZNK6casadi13ProtoFunction5printEPKcz(ptr noundef nonnull align 8 dereferenceable(168) %25, ptr noundef @.str.136, i64 noundef %26, double noundef %27, double noundef %28, double noundef %29, double noundef %30)
  %31 = load double, ptr %18, align 8, !tbaa !192
  %32 = fcmp ogt double %31, 0.000000e+00
  br i1 %32, label %33, label %36

33:                                               ; preds = %11
  %34 = load double, ptr %18, align 8, !tbaa !192
  %35 = call double @log10(double noundef %34) #3, !tbaa !256
  call void (ptr, ptr, ...) @_ZNK6casadi13ProtoFunction5printEPKcz(ptr noundef nonnull align 8 dereferenceable(168) %25, ptr noundef @.str.137, double noundef %35)
  br label %37

36:                                               ; preds = %11
  call void (ptr, ptr, ...) @_ZNK6casadi13ProtoFunction5printEPKcz(ptr noundef nonnull align 8 dereferenceable(168) %25, ptr noundef @.str.138, ptr noundef @.str.139)
  br label %37

37:                                               ; preds = %36, %33
  %38 = load i64, ptr %19, align 8, !tbaa !193
  call void (ptr, ptr, ...) @_ZNK6casadi13ProtoFunction5printEPKcz(ptr noundef nonnull align 8 dereferenceable(168) %25, ptr noundef @.str.140, i64 noundef %38)
  %39 = load i8, ptr %20, align 1, !tbaa !42, !range !44, !noundef !45
  %40 = trunc i8 %39 to i1
  br i1 %40, label %42, label %41

41:                                               ; preds = %37
  call void (ptr, ptr, ...) @_ZNK6casadi13ProtoFunction5printEPKcz(ptr noundef nonnull align 8 dereferenceable(168) %25, ptr noundef @.str.141)
  br label %43

42:                                               ; preds = %37
  call void (ptr, ptr, ...) @_ZNK6casadi13ProtoFunction5printEPKcz(ptr noundef nonnull align 8 dereferenceable(168) %25, ptr noundef @.str.142)
  br label %43

43:                                               ; preds = %42, %41
  %44 = load i8, ptr %21, align 1, !tbaa !42, !range !44, !noundef !45
  %45 = trunc i8 %44 to i1
  br i1 %45, label %46, label %47

46:                                               ; preds = %43
  call void (ptr, ptr, ...) @_ZNK6casadi13ProtoFunction5printEPKcz(ptr noundef nonnull align 8 dereferenceable(168) %25, ptr noundef @.str.143)
  br label %47

47:                                               ; preds = %46, %43
  call void (ptr, ptr, ...) @_ZNK6casadi13ProtoFunction5printEPKcz(ptr noundef nonnull align 8 dereferenceable(168) %25, ptr noundef @.str.144)
  %48 = call noundef ptr @_ZNKSt7__cxx1112basic_stringIcSt11char_traitsIcESaIcEE5c_strEv(ptr noundef nonnull align 8 dereferenceable(32) %10) #3
  call void (ptr, ptr, ...) @_ZNK6casadi13ProtoFunction5printEPKcz(ptr noundef nonnull align 8 dereferenceable(168) %25, ptr noundef %48)
  call void (ptr, ptr, ...) @_ZNK6casadi13ProtoFunction5printEPKcz(ptr noundef nonnull align 8 dereferenceable(168) %25, ptr noundef @.str.109)
  ret void
}