; Function Attrs: mustprogress uwtable
define void @_ZNK6casadi9Sqpmethod15print_iterationExdddddxbbNSt7__cxx1112basic_stringIcSt11char_traitsIcESaIcEEE(ptr noundef nonnull align 8 dereferenceable(2386) %0, i64 noundef %1, double noundef %2, double noundef %3, double noundef %4, double noundef %5, double noundef %6, i64 noundef %7, i1 noundef zeroext %8, i1 noundef zeroext %9, ptr noundef readonly captures(none) %10) local_unnamed_addr #4 align 2 {
  tail call void (ptr, ptr, ...) @_ZNK6casadi13ProtoFunction5printEPKcz(ptr noundef nonnull align 8 dereferenceable(168) %0, ptr noundef nonnull @.str.136, i64 noundef %1, double noundef %2, double noundef %3, double noundef %4, double noundef %5)
  %12 = fcmp ogt double %6, 0.000000e+00
  br i1 %12, label %13, label %15

13:                                               ; preds = %11
  %14 = tail call double @llvm.log10.f64(double %6), !tbaa !310
  tail call void (ptr, ptr, ...) @_ZNK6casadi13ProtoFunction5printEPKcz(ptr noundef nonnull align 8 dereferenceable(168) %0, ptr noundef nonnull @.str.137, double noundef %14)
  br label %16

15:                                               ; preds = %11
  tail call void (ptr, ptr, ...) @_ZNK6casadi13ProtoFunction5printEPKcz(ptr noundef nonnull align 8 dereferenceable(168) %0, ptr noundef nonnull @.str.138, ptr noundef nonnull @.str.139)
  br label %16

16:                                               ; preds = %15, %13
  tail call void (ptr, ptr, ...) @_ZNK6casadi13ProtoFunction5printEPKcz(ptr noundef nonnull align 8 dereferenceable(168) %0, ptr noundef nonnull @.str.140, i64 noundef %7)
  %.str.142..str.141 = select i1 %8, ptr @.str.142, ptr @.str.141
  tail call void (ptr, ptr, ...) @_ZNK6casadi13ProtoFunction5printEPKcz(ptr noundef nonnull align 8 dereferenceable(168) %0, ptr noundef nonnull %.str.142..str.141)
  br i1 %9, label %17, label %18

17:                                               ; preds = %16
  tail call void (ptr, ptr, ...) @_ZNK6casadi13ProtoFunction5printEPKcz(ptr noundef nonnull align 8 dereferenceable(168) %0, ptr noundef nonnull @.str.143)
  br label %18

18:                                               ; preds = %17, %16
  tail call void (ptr, ptr, ...) @_ZNK6casadi13ProtoFunction5printEPKcz(ptr noundef nonnull align 8 dereferenceable(168) %0, ptr noundef nonnull @.str.144)
  %19 = load ptr, ptr %10, align 8, !tbaa !11
  tail call void (ptr, ptr, ...) @_ZNK6casadi13ProtoFunction5printEPKcz(ptr noundef nonnull align 8 dereferenceable(168) %0, ptr noundef %19)
  tail call void (ptr, ptr, ...) @_ZNK6casadi13ProtoFunction5printEPKcz(ptr noundef nonnull align 8 dereferenceable(168) %0, ptr noundef nonnull @.str.109)
  ret void
}